target datalayout = "e-m:e-p270:32:32-p271:32:32-p272:64:64-i64:64-i128:128-f80:128-n8:16:32:64-S128"
target triple = "x86_64-pc-linux-gnu"

%struct._php_random_status_state_pcgoneseq128xslrr64 = type { i128 }
%struct._php_random_result = type { i64, i64 }

; Function Attrs: nounwind uwtable
define internal { i64, i64 } @php_random_uint128_add(i64 noundef %0, i64 noundef %1, i64 noundef %2, i64 noundef %3) #0 {
  %5 = alloca i128, align 16
  %6 = alloca i128, align 16
  %7 = alloca i128, align 16
  %8 = alloca i128, align 16
  %9 = alloca i128, align 16
  %10 = getelementptr inbounds { i64, i64 }, ptr %6, i32 0, i32 0
  store i64 %0, ptr %10, align 16
  %11 = getelementptr inbounds { i64, i64 }, ptr %6, i32 0, i32 1
  store i64 %1, ptr %11, align 8
  %12 = load i128, ptr %6, align 16
  %13 = getelementptr inbounds { i64, i64 }, ptr %7, i32 0, i32 0
  store i64 %2, ptr %13, align 16
  %14 = getelementptr inbounds { i64, i64 }, ptr %7, i32 0, i32 1
  store i64 %3, ptr %14, align 8
  %15 = load i128, ptr %7, align 16
  store i128 %12, ptr %8, align 16
  store i128 %15, ptr %9, align 16
  %16 = load i128, ptr %8, align 16
  %17 = load i128, ptr %9, align 16
  %18 = add i128 %16, %17
  store i128 %18, ptr %5, align 16
  %19 = load { i64, i64 }, ptr %5, align 16
  ret { i64, i64 } %19
}

; Function Attrs: nounwind uwtable
define internal { i64, i64 } @php_random_uint128_multiply(i64 noundef %0, i64 noundef %1, i64 noundef %2, i64 noundef %3) #0 {
  %5 = alloca i128, align 16
  %6 = alloca i128, align 16
  %7 = alloca i128, align 16
  %8 = alloca i128, align 16
  %9 = alloca i128, align 16
  %10 = getelementptr inbounds { i64, i64 }, ptr %6, i32 0, i32 0
  store i64 %0, ptr %10, align 16
  %11 = getelementptr inbounds { i64, i64 }, ptr %6, i32 0, i32 1
  store i64 %1, ptr %11, align 8
  %12 = load i128, ptr %6, align 16
  %13 = getelementptr inbounds { i64, i64 }, ptr %7, i32 0, i32 0
  store i64 %2, ptr %13, align 16
  %14 = getelementptr inbounds { i64, i64 }, ptr %7, i32 0, i32 1
  store i64 %3, ptr %14, align 8
  %15 = load i128, ptr %7, align 16
  store i128 %12, ptr %8, align 16
  store i128 %15, ptr %9, align 16
  %16 = load i128, ptr %8, align 16
  %17 = load i128, ptr %9, align 16
  %18 = mul i128 %16, %17
  store i128 %18, ptr %5, align 16
  %19 = load { i64, i64 }, ptr %5, align 16
  ret { i64, i64 } %19
}

; Function Attrs: nounwind uwtable
define internal { i64, i64 } @php_random_uint128_constant(i64 noundef %0, i64 noundef %1) #0 {
  %3 = alloca i128, align 16
  %4 = alloca i64, align 8
  %5 = alloca i64, align 8
  %6 = alloca i128, align 16
  store i64 %0, ptr %4, align 8
  store i64 %1, ptr %5, align 8
  %7 = load i64, ptr %4, align 8
  %8 = zext i64 %7 to i128
  %9 = shl i128 %8, 64
  %10 = load i64, ptr %5, align 8
  %11 = zext i64 %10 to i128
  %12 = add i128 %9, %11
  store i128 %12, ptr %6, align 16
  %13 = load i128, ptr %6, align 16
  store i128 %13, ptr %3, align 16
  %14 = load { i64, i64 }, ptr %3, align 16
  ret { i64, i64 } %14
}

; Function Attrs: nounwind uwtable
define internal i64 @php_random_pcgoneseq128xslrr64_rotr64(i64 noundef %0, i64 noundef %1) #0 {
  %3 = alloca i128, align 16
  %4 = alloca i128, align 16
  %5 = alloca i64, align 8
  %6 = alloca i64, align 8
  %7 = getelementptr inbounds { i64, i64 }, ptr %3, i32 0, i32 0
  store i64 %0, ptr %7, align 16
  %8 = getelementptr inbounds { i64, i64 }, ptr %3, i32 0, i32 1
  store i64 %1, ptr %8, align 8
  %9 = load i128, ptr %3, align 16
  store i128 %9, ptr %4, align 16
  %10 = load i128, ptr %4, align 16
  %11 = lshr i128 %10, 64
  %12 = trunc i128 %11 to i64
  %13 = load i128, ptr %4, align 16
  %14 = trunc i128 %13 to i64
  %15 = xor i64 %12, %14
  store i64 %15, ptr %5, align 8
  %16 = load i128, ptr %4, align 16
  %17 = lshr i128 %16, 122
  %18 = trunc i128 %17 to i64
  store i64 %18, ptr %6, align 8
  %19 = load i64, ptr %5, align 8
  %20 = load i64, ptr %6, align 8
  %21 = lshr i64 %19, %20
  %22 = load i64, ptr %5, align 8
  %23 = load i64, ptr %6, align 8
  %24 = sub i64 0, %23
  %25 = and i64 %24, 63
  %26 = shl i64 %22, %25
  %27 = or i64 %21, %26
  ret i64 %27
}

; Function Attrs: nounwind uwtable
define internal void @step(ptr noundef %0) #0 {
  %2 = alloca ptr, align 8
  %3 = alloca i128, align 16
  %4 = alloca i128, align 16
  %5 = alloca i128, align 16
  %6 = alloca i128, align 16
  %7 = alloca i128, align 16
  %8 = alloca i128, align 16
  %9 = alloca i128, align 16
  %10 = alloca i128, align 16
  store ptr %0, ptr %2, align 8
  %11 = load ptr, ptr %2, align 8
  %12 = getelementptr inbounds %struct._php_random_status_state_pcgoneseq128xslrr64, ptr %11, i32 0, i32 0
  %13 = load i128, ptr %12, align 16
  %14 = call { i64, i64 } @php_random_uint128_constant(i64 noundef 2549297995355413924, i64 noundef 4865540595714422341)
  %15 = getelementptr inbounds { i64, i64 }, ptr %3, i32 0, i32 0
  %16 = extractvalue { i64, i64 } %14, 0
  store i64 %16, ptr %15, align 16
  %17 = getelementptr inbounds { i64, i64 }, ptr %3, i32 0, i32 1
  %18 = extractvalue { i64, i64 } %14, 1
  store i64 %18, ptr %17, align 8
  %19 = load i128, ptr %3, align 16
  store i128 %13, ptr %4, align 16
  %20 = getelementptr inbounds { i64, i64 }, ptr %4, i32 0, i32 0
  %21 = load i64, ptr %20, align 16
  %22 = getelementptr inbounds { i64, i64 }, ptr %4, i32 0, i32 1
  %23 = load i64, ptr %22, align 8
  store i128 %19, ptr %5, align 16
  %24 = getelementptr inbounds { i64, i64 }, ptr %5, i32 0, i32 0
  %25 = load i64, ptr %24, align 16
  %26 = getelementptr inbounds { i64, i64 }, ptr %5, i32 0, i32 1
  %27 = load i64, ptr %26, align 8
  %28 = call { i64, i64 } @php_random_uint128_multiply(i64 noundef %21, i64 noundef %23, i64 noundef %25, i64 noundef %27)
  %29 = getelementptr inbounds { i64, i64 }, ptr %6, i32 0, i32 0
  %30 = extractvalue { i64, i64 } %28, 0
  store i64 %30, ptr %29, align 16
  %31 = getelementptr inbounds { i64, i64 }, ptr %6, i32 0, i32 1
  %32 = extractvalue { i64, i64 } %28, 1
  store i64 %32, ptr %31, align 8
  %33 = load i128, ptr %6, align 16
  %34 = call { i64, i64 } @php_random_uint128_constant(i64 noundef 6364136223846793005, i64 noundef 1442695040888963407)
  %35 = getelementptr inbounds { i64, i64 }, ptr %7, i32 0, i32 0
  %36 = extractvalue { i64, i64 } %34, 0
  store i64 %36, ptr %35, align 16
  %37 = getelementptr inbounds { i64, i64 }, ptr %7, i32 0, i32 1
  %38 = extractvalue { i64, i64 } %34, 1
  store i64 %38, ptr %37, align 8
  %39 = load i128, ptr %7, align 16
  store i128 %33, ptr %8, align 16
  %40 = getelementptr inbounds { i64, i64 }, ptr %8, i32 0, i32 0
  %41 = load i64, ptr %40, align 16
  %42 = getelementptr inbounds { i64, i64 }, ptr %8, i32 0, i32 1
  %43 = load i64, ptr %42, align 8
  store i128 %39, ptr %9, align 16
  %44 = getelementptr inbounds { i64, i64 }, ptr %9, i32 0, i32 0
  %45 = load i64, ptr %44, align 16
  %46 = getelementptr inbounds { i64, i64 }, ptr %9, i32 0, i32 1
  %47 = load i64, ptr %46, align 8
  %48 = call { i64, i64 } @php_random_uint128_add(i64 noundef %41, i64 noundef %43, i64 noundef %45, i64 noundef %47)
  %49 = getelementptr inbounds { i64, i64 }, ptr %10, i32 0, i32 0
  %50 = extractvalue { i64, i64 } %48, 0
  store i64 %50, ptr %49, align 16
  %51 = getelementptr inbounds { i64, i64 }, ptr %10, i32 0, i32 1
  %52 = extractvalue { i64, i64 } %48, 1
  store i64 %52, ptr %51, align 8
  %53 = load i128, ptr %10, align 16
  %54 = load ptr, ptr %2, align 8
  %55 = getelementptr inbounds %struct._php_random_status_state_pcgoneseq128xslrr64, ptr %54, i32 0, i32 0
  store i128 %53, ptr %55, align 16
  ret void
}

; Function Attrs: nounwind uwtable
define internal { i64, i64 } @generate(ptr noundef %0) #0 {
  %2 = alloca %struct._php_random_result, align 8
  %3 = alloca ptr, align 8
  %4 = alloca ptr, align 8
  %5 = alloca i128, align 16
  store ptr %0, ptr %3, align 8
  %6 = load ptr, ptr %3, align 8
  store ptr %6, ptr %4, align 8
  %7 = load ptr, ptr %4, align 8
  call void @step(ptr noundef %7)
  %8 = getelementptr inbounds %struct._php_random_result, ptr %2, i32 0, i32 0
  %9 = load ptr, ptr %4, align 8
  %10 = getelementptr inbounds %struct._php_random_status_state_pcgoneseq128xslrr64, ptr %9, i32 0, i32 0
  %11 = load i128, ptr %10, align 16
  store i128 %11, ptr %5, align 16
  %12 = getelementptr inbounds { i64, i64 }, ptr %5, i32 0, i32 0
  %13 = load i64, ptr %12, align 16
  %14 = getelementptr inbounds { i64, i64 }, ptr %5, i32 0, i32 1
  %15 = load i64, ptr %14, align 8
  %16 = call i64 @php_random_pcgoneseq128xslrr64_rotr64(i64 noundef %13, i64 noundef %15)
  store i64 %16, ptr %8, align 8
  %17 = getelementptr inbounds %struct._php_random_result, ptr %2, i32 0, i32 1
  store i64 8, ptr %17, align 8
  %18 = load { i64, i64 }, ptr %2, align 8
  ret { i64, i64 } %18
}