; Function Attrs: mustprogress nofree norecurse nosync nounwind willreturn memory(argmem: readwrite) uwtable
define internal { i64, i64 } @generate(ptr nocapture noundef %0) #1 {
  %2 = load i128, ptr %0, align 16
  %3 = mul i128 %2, 47026247687942121848144207491837523525
  %.sroa.02.0.insert.insert.i21.i = add i128 %3, 1442695040888963407
  %4 = lshr i128 %.sroa.02.0.insert.insert.i21.i, 64
  %.tr.i.i = trunc i128 %4 to i64
  %.narrow.i.i = add i64 %.tr.i.i, 6364136223846793005
  %.sroa.2.0.insert.ext.i = zext i64 %.narrow.i.i to i128
  %.sroa.2.0.insert.shift.i = shl nuw i128 %.sroa.2.0.insert.ext.i, 64
  %.sroa.0.0.insert.ext.i = and i128 %.sroa.02.0.insert.insert.i21.i, 18446744073709551615
  %.sroa.0.0.insert.insert.i = or disjoint i128 %.sroa.2.0.insert.shift.i, %.sroa.0.0.insert.ext.i
  store i128 %.sroa.0.0.insert.insert.i, ptr %0, align 16
  %.sroa.0.0.extract.trunc = trunc i128 %.sroa.02.0.insert.insert.i21.i to i64
  %5 = xor i64 %.narrow.i.i, %.sroa.0.0.extract.trunc
  %6 = lshr i64 %.narrow.i.i, 58
  %7 = tail call noundef i64 @llvm.fshr.i64(i64 %5, i64 %5, i64 %6)
  %.fca.0.insert = insertvalue { i64, i64 } poison, i64 %7, 0
  %.fca.1.insert = insertvalue { i64, i64 } %.fca.0.insert, i64 8, 1
  ret { i64, i64 } %.fca.1.insert
}